target datalayout = "e-m:e-p270:32:32-p271:32:32-p272:64:64-i64:64-i128:128-f80:128-n8:16:32:64-S128"
target triple = "x86_64-pc-linux-gnu"

; Function Attrs: nounwind uwtable
define i64 @PPC_Convert(ptr noundef %0, i64 noundef %1, i32 noundef %2, i32 noundef %3) #0 {
  %5 = alloca i64, align 8
  %6 = alloca ptr, align 8
  %7 = alloca i64, align 8
  %8 = alloca i32, align 4
  %9 = alloca i32, align 4
  %10 = alloca i64, align 8
  %11 = alloca i32, align 4
  %12 = alloca i32, align 4
  %13 = alloca i32, align 4
  store ptr %0, ptr %6, align 8, !tbaa !3
  store i64 %1, ptr %7, align 8, !tbaa !8
  store i32 %2, ptr %8, align 4, !tbaa !10
  store i32 %3, ptr %9, align 4, !tbaa !10
  call void @llvm.lifetime.start.p0(i64 8, ptr %10) #2
  %14 = load i64, ptr %7, align 8, !tbaa !8
  %15 = icmp ult i64 %14, 4
  br i1 %15, label %16, label %17

16:                                               ; preds = %4
  store i64 0, ptr %5, align 8
  store i32 1, ptr %11, align 4
  br label %137

17:                                               ; preds = %4
  %18 = load i64, ptr %7, align 8, !tbaa !8
  %19 = sub i64 %18, 4
  store i64 %19, ptr %7, align 8, !tbaa !8
  store i64 0, ptr %10, align 8, !tbaa !8
  br label %20

20:                                               ; preds = %132, %17
  %21 = load i64, ptr %10, align 8, !tbaa !8
  %22 = load i64, ptr %7, align 8, !tbaa !8
  %23 = icmp ule i64 %21, %22
  br i1 %23, label %24, label %135

24:                                               ; preds = %20
  %25 = load ptr, ptr %6, align 8, !tbaa !3
  %26 = load i64, ptr %10, align 8, !tbaa !8
  %27 = getelementptr inbounds nuw i8, ptr %25, i64 %26
  %28 = load i8, ptr %27, align 1, !tbaa !12
  %29 = zext i8 %28 to i32
  %30 = ashr i32 %29, 2
  %31 = icmp eq i32 %30, 18
  br i1 %31, label %32, label %131

32:                                               ; preds = %24
  %33 = load ptr, ptr %6, align 8, !tbaa !3
  %34 = load i64, ptr %10, align 8, !tbaa !8
  %35 = add i64 %34, 3
  %36 = getelementptr inbounds nuw i8, ptr %33, i64 %35
  %37 = load i8, ptr %36, align 1, !tbaa !12
  %38 = zext i8 %37 to i32
  %39 = and i32 %38, 3
  %40 = icmp eq i32 %39, 1
  br i1 %40, label %41, label %131

41:                                               ; preds = %32
  call void @llvm.lifetime.start.p0(i64 4, ptr %12) #2
  %42 = load ptr, ptr %6, align 8, !tbaa !3
  %43 = load i64, ptr %10, align 8, !tbaa !8
  %44 = add i64 %43, 0
  %45 = getelementptr inbounds nuw i8, ptr %42, i64 %44
  %46 = load i8, ptr %45, align 1, !tbaa !12
  %47 = zext i8 %46 to i32
  %48 = and i32 %47, 3
  %49 = shl i32 %48, 24
  %50 = load ptr, ptr %6, align 8, !tbaa !3
  %51 = load i64, ptr %10, align 8, !tbaa !8
  %52 = add i64 %51, 1
  %53 = getelementptr inbounds nuw i8, ptr %50, i64 %52
  %54 = load i8, ptr %53, align 1, !tbaa !12
  %55 = zext i8 %54 to i32
  %56 = shl i32 %55, 16
  %57 = or i32 %49, %56
  %58 = load ptr, ptr %6, align 8, !tbaa !3
  %59 = load i64, ptr %10, align 8, !tbaa !8
  %60 = add i64 %59, 2
  %61 = getelementptr inbounds nuw i8, ptr %58, i64 %60
  %62 = load i8, ptr %61, align 1, !tbaa !12
  %63 = zext i8 %62 to i32
  %64 = shl i32 %63, 8
  %65 = or i32 %57, %64
  %66 = load ptr, ptr %6, align 8, !tbaa !3
  %67 = load i64, ptr %10, align 8, !tbaa !8
  %68 = add i64 %67, 3
  %69 = getelementptr inbounds nuw i8, ptr %66, i64 %68
  %70 = load i8, ptr %69, align 1, !tbaa !12
  %71 = zext i8 %70 to i32
  %72 = and i32 %71, -4
  %73 = or i32 %65, %72
  store i32 %73, ptr %12, align 4, !tbaa !10
  call void @llvm.lifetime.start.p0(i64 4, ptr %13) #2
  %74 = load i32, ptr %9, align 4, !tbaa !10
  %75 = icmp ne i32 %74, 0
  br i1 %75, label %76, label %83

76:                                               ; preds = %41
  %77 = load i32, ptr %8, align 4, !tbaa !10
  %78 = load i64, ptr %10, align 8, !tbaa !8
  %79 = trunc i64 %78 to i32
  %80 = add i32 %77, %79
  %81 = load i32, ptr %12, align 4, !tbaa !10
  %82 = add i32 %80, %81
  store i32 %82, ptr %13, align 4, !tbaa !10
  br label %90

83:                                               ; preds = %41
  %84 = load i32, ptr %12, align 4, !tbaa !10
  %85 = load i32, ptr %8, align 4, !tbaa !10
  %86 = load i64, ptr %10, align 8, !tbaa !8
  %87 = trunc i64 %86 to i32
  %88 = add i32 %85, %87
  %89 = sub i32 %84, %88
  store i32 %89, ptr %13, align 4, !tbaa !10
  br label %90

90:                                               ; preds = %83, %76
  %91 = load i32, ptr %13, align 4, !tbaa !10
  %92 = lshr i32 %91, 24
  %93 = and i32 %92, 3
  %94 = or i32 72, %93
  %95 = trunc i32 %94 to i8
  %96 = load ptr, ptr %6, align 8, !tbaa !3
  %97 = load i64, ptr %10, align 8, !tbaa !8
  %98 = add i64 %97, 0
  %99 = getelementptr inbounds nuw i8, ptr %96, i64 %98
  store i8 %95, ptr %99, align 1, !tbaa !12
  %100 = load i32, ptr %13, align 4, !tbaa !10
  %101 = lshr i32 %100, 16
  %102 = trunc i32 %101 to i8
  %103 = load ptr, ptr %6, align 8, !tbaa !3
  %104 = load i64, ptr %10, align 8, !tbaa !8
  %105 = add i64 %104, 1
  %106 = getelementptr inbounds nuw i8, ptr %103, i64 %105
  store i8 %102, ptr %106, align 1, !tbaa !12
  %107 = load i32, ptr %13, align 4, !tbaa !10
  %108 = lshr i32 %107, 8
  %109 = trunc i32 %108 to i8
  %110 = load ptr, ptr %6, align 8, !tbaa !3
  %111 = load i64, ptr %10, align 8, !tbaa !8
  %112 = add i64 %111, 2
  %113 = getelementptr inbounds nuw i8, ptr %110, i64 %112
  store i8 %109, ptr %113, align 1, !tbaa !12
  %114 = load ptr, ptr %6, align 8, !tbaa !3
  %115 = load i64, ptr %10, align 8, !tbaa !8
  %116 = add i64 %115, 3
  %117 = getelementptr inbounds nuw i8, ptr %114, i64 %116
  %118 = load i8, ptr %117, align 1, !tbaa !12
  %119 = zext i8 %118 to i32
  %120 = and i32 %119, 3
  %121 = trunc i32 %120 to i8
  store i8 %121, ptr %117, align 1, !tbaa !12
  %122 = load i32, ptr %13, align 4, !tbaa !10
  %123 = load ptr, ptr %6, align 8, !tbaa !3
  %124 = load i64, ptr %10, align 8, !tbaa !8
  %125 = add i64 %124, 3
  %126 = getelementptr inbounds nuw i8, ptr %123, i64 %125
  %127 = load i8, ptr %126, align 1, !tbaa !12
  %128 = zext i8 %127 to i32
  %129 = or i32 %128, %122
  %130 = trunc i32 %129 to i8
  store i8 %130, ptr %126, align 1, !tbaa !12
  call void @llvm.lifetime.end.p0(i64 4, ptr %13) #2
  call void @llvm.lifetime.end.p0(i64 4, ptr %12) #2
  br label %131

131:                                              ; preds = %90, %32, %24
  br label %132

132:                                              ; preds = %131
  %133 = load i64, ptr %10, align 8, !tbaa !8
  %134 = add i64 %133, 4
  store i64 %134, ptr %10, align 8, !tbaa !8
  br label %20

135:                                              ; preds = %20
  %136 = load i64, ptr %10, align 8, !tbaa !8
  store i64 %136, ptr %5, align 8
  store i32 1, ptr %11, align 4
  br label %137

137:                                              ; preds = %135, %16
  call void @llvm.lifetime.end.p0(i64 8, ptr %10) #2
  %138 = load i64, ptr %5, align 8
  ret i64 %138
}