; Function Attrs: nofree norecurse nosync nounwind memory(argmem: readwrite) uwtable
define range(i64 4, 1) i64 @PPC_Convert(ptr noundef captures(none) %0, i64 noundef %1, i32 noundef %2, i32 noundef %3) local_unnamed_addr #0 {
  %5 = icmp ult i64 %1, 4
  br i1 %5, label %.loopexit, label %6

6:                                                ; preds = %4
  %7 = add i64 %1, -4
  %.not42 = icmp eq i32 %3, 0
  br i1 %.not42, label %.split.us, label %.split

.split.us:                                        ; preds = %6, %49
  %.04043.us = phi i64 [ %50, %49 ], [ 0, %6 ]
  %8 = getelementptr inbounds nuw i8, ptr %0, i64 %.04043.us
  %9 = load i8, ptr %8, align 1, !tbaa !3
  %10 = zext i8 %9 to i32
  %.mask.us = and i32 %10, 252
  %11 = icmp eq i32 %.mask.us, 72
  br i1 %11, label %12, label %49

12:                                               ; preds = %.split.us
  %13 = or disjoint i64 %.04043.us, 3
  %14 = getelementptr inbounds nuw i8, ptr %0, i64 %13
  %15 = load i8, ptr %14, align 1, !tbaa !3
  %16 = zext i8 %15 to i32
  %17 = and i32 %16, 3
  %18 = icmp eq i32 %17, 1
  br i1 %18, label %19, label %49

19:                                               ; preds = %12
  %20 = shl nuw nsw i32 %10, 24
  %21 = and i32 %20, 50331648
  %22 = or disjoint i64 %.04043.us, 1
  %23 = getelementptr inbounds nuw i8, ptr %0, i64 %22
  %24 = load i8, ptr %23, align 1, !tbaa !3
  %25 = zext i8 %24 to i32
  %26 = shl nuw nsw i32 %25, 16
  %27 = or disjoint i64 %.04043.us, 2
  %28 = getelementptr inbounds nuw i8, ptr %0, i64 %27
  %29 = load i8, ptr %28, align 1, !tbaa !3
  %30 = zext i8 %29 to i32
  %31 = shl nuw nsw i32 %30, 8
  %32 = and i32 %16, 252
  %33 = trunc i64 %.04043.us to i32
  %34 = add i32 %2, %33
  %35 = sub i32 %21, %34
  %36 = add i32 %35, %32
  %37 = add i32 %36, %26
  %.0.us = add i32 %37, %31
  %38 = lshr i32 %.0.us, 24
  %39 = trunc nuw i32 %38 to i8
  %40 = and i8 %39, 3
  %41 = or disjoint i8 %40, 72
  store i8 %41, ptr %8, align 1, !tbaa !3
  %42 = lshr i32 %.0.us, 16
  %43 = trunc i32 %42 to i8
  store i8 %43, ptr %23, align 1, !tbaa !3
  %44 = lshr i32 %.0.us, 8
  %45 = trunc i32 %44 to i8
  store i8 %45, ptr %28, align 1, !tbaa !3
  %46 = and i8 %15, 3
  %47 = trunc i32 %36 to i8
  %48 = or i8 %46, %47
  store i8 %48, ptr %14, align 1, !tbaa !3
  br label %49

49:                                               ; preds = %19, %12, %.split.us
  %50 = add nuw i64 %.04043.us, 4
  %.not.us = icmp ugt i64 %50, %7
  br i1 %.not.us, label %.loopexit, label %.split.us

.split:                                           ; preds = %6, %92
  %.04043 = phi i64 [ %93, %92 ], [ 0, %6 ]
  %51 = getelementptr inbounds nuw i8, ptr %0, i64 %.04043
  %52 = load i8, ptr %51, align 1, !tbaa !3
  %53 = zext i8 %52 to i32
  %.mask = and i32 %53, 252
  %54 = icmp eq i32 %.mask, 72
  br i1 %54, label %55, label %92

55:                                               ; preds = %.split
  %56 = or disjoint i64 %.04043, 3
  %57 = getelementptr inbounds nuw i8, ptr %0, i64 %56
  %58 = load i8, ptr %57, align 1, !tbaa !3
  %59 = zext i8 %58 to i32
  %60 = and i32 %59, 3
  %61 = icmp eq i32 %60, 1
  br i1 %61, label %62, label %92

62:                                               ; preds = %55
  %63 = shl nuw nsw i32 %53, 24
  %64 = and i32 %63, 50331648
  %65 = or disjoint i64 %.04043, 1
  %66 = getelementptr inbounds nuw i8, ptr %0, i64 %65
  %67 = load i8, ptr %66, align 1, !tbaa !3
  %68 = zext i8 %67 to i32
  %69 = shl nuw nsw i32 %68, 16
  %70 = or disjoint i64 %.04043, 2
  %71 = getelementptr inbounds nuw i8, ptr %0, i64 %70
  %72 = load i8, ptr %71, align 1, !tbaa !3
  %73 = zext i8 %72 to i32
  %74 = shl nuw nsw i32 %73, 8
  %75 = and i32 %59, 252
  %76 = trunc i64 %.04043 to i32
  %77 = add i32 %2, %76
  %78 = add i32 %64, %77
  %79 = add i32 %78, %75
  %80 = add i32 %79, %69
  %.0 = add i32 %80, %74
  %81 = lshr i32 %.0, 24
  %82 = trunc nuw i32 %81 to i8
  %83 = and i8 %82, 3
  %84 = or disjoint i8 %83, 72
  store i8 %84, ptr %51, align 1, !tbaa !3
  %85 = lshr i32 %.0, 16
  %86 = trunc i32 %85 to i8
  store i8 %86, ptr %66, align 1, !tbaa !3
  %87 = lshr i32 %.0, 8
  %88 = trunc i32 %87 to i8
  store i8 %88, ptr %71, align 1, !tbaa !3
  %89 = and i8 %58, 3
  %90 = trunc i32 %79 to i8
  %91 = or i8 %89, %90
  store i8 %91, ptr %57, align 1, !tbaa !3
  br label %92

92:                                               ; preds = %.split, %55, %62
  %93 = add nuw i64 %.04043, 4
  %.not = icmp ugt i64 %93, %7
  br i1 %.not, label %.loopexit, label %.split

.loopexit:                                        ; preds = %92, %49, %4
  %.039 = phi i64 [ 0, %4 ], [ %50, %49 ], [ %93, %92 ]
  ret i64 %.039
}